target datalayout = "e-m:e-p270:32:32-p271:32:32-p272:64:64-i64:64-i128:128-f80:128-n8:16:32:64-S128"
target triple = "x86_64-pc-linux-gnu"

%struct.H5S_select_class_t = type { i32, ptr, ptr, ptr, ptr, ptr, ptr, ptr, ptr, ptr, ptr, ptr, ptr, ptr, ptr, ptr, ptr, ptr, ptr, ptr, ptr }
%struct.H5S_t = type { %struct.H5S_extent_t, %struct.H5S_select_t }
%struct.H5S_extent_t = type { %struct.H5O_shared_t, i32, i32, i64, i32, ptr, ptr }
%struct.H5O_shared_t = type { i32, ptr, i32, %union.anon }
%union.anon = type { %struct.H5O_mesg_loc_t }
%struct.H5O_mesg_loc_t = type { i32, i64 }
%struct.H5S_select_t = type { ptr, i8, [32 x i64], i64, %union.anon.0 }
%union.anon.0 = type { ptr }

@.str.1 = private unnamed_addr constant [103 x i8] c"generated/home/dtcxzyw/WorkSpace/Projects/compilers/llvm-opt-benchmark/bench/hdf5/hdf5/src/H5Sselect.c\00", align 1
@H5E_DATASPACE_g = external global i64, align 8
@H5E_UNSUPPORTED_g = external global i64, align 8
@__func__.H5S_get_select_num_elem_non_unlim = private unnamed_addr constant [34 x i8] c"H5S_get_select_num_elem_non_unlim\00", align 1
@.str.13 = private unnamed_addr constant [50 x i8] c"selection type has no num_elem_non_unlim callback\00", align 1
@H5E_CANTCOUNT_g = external global i64, align 8
@.str.14 = private unnamed_addr constant [56 x i8] c"can't get number of elements in non-unlimited dimension\00", align 1

; Function Attrs: nounwind uwtable
define i32 @H5S_get_select_num_elem_non_unlim(ptr noundef %0, ptr noundef %1) #0 {
  %3 = alloca ptr, align 8
  %4 = alloca ptr, align 8
  %5 = alloca i32, align 4
  %6 = alloca i8, align 1
  store ptr %0, ptr %3, align 8
  store ptr %1, ptr %4, align 8
  store i32 0, ptr %5, align 4
  store i8 0, ptr %6, align 1
  %7 = load ptr, ptr %3, align 8
  %8 = getelementptr inbounds %struct.H5S_t, ptr %7, i32 0, i32 1
  %9 = getelementptr inbounds %struct.H5S_select_t, ptr %8, i32 0, i32 0
  %10 = load ptr, ptr %9, align 8
  %11 = getelementptr inbounds %struct.H5S_select_class_t, ptr %10, i32 0, i32 10
  %12 = load ptr, ptr %11, align 8
  %13 = icmp ne ptr %12, null
  br i1 %13, label %29, label %14

14:                                               ; preds = %2
  br label %15

15:                                               ; preds = %14
  br label %16

16:                                               ; preds = %15
  br label %17

17:                                               ; preds = %16
  %18 = load i64, ptr @H5E_DATASPACE_g, align 8
  %19 = load i64, ptr @H5E_UNSUPPORTED_g, align 8
  %20 = call i32 (ptr, ptr, i32, i64, i64, ptr, ...) @H5E_printf_stack(ptr noundef @.str.1, ptr noundef @__func__.H5S_get_select_num_elem_non_unlim, i32 noundef 761, i64 noundef %18, i64 noundef %19, ptr noundef @.str.13)
  br label %21

21:                                               ; preds = %17
  store i8 1, ptr %6, align 1
  %22 = load i8, ptr %6, align 1
  %23 = trunc i8 %22 to i1
  %24 = zext i1 %23 to i8
  store i8 %24, ptr %6, align 1
  br label %25

25:                                               ; preds = %21
  br label %26

26:                                               ; preds = %25
  store i32 -1, ptr %5, align 4
  br label %56

27:                                               ; No predecessors!
  br label %28

28:                                               ; preds = %27
  br label %29

29:                                               ; preds = %28, %2
  %30 = load ptr, ptr %3, align 8
  %31 = getelementptr inbounds %struct.H5S_t, ptr %30, i32 0, i32 1
  %32 = getelementptr inbounds %struct.H5S_select_t, ptr %31, i32 0, i32 0
  %33 = load ptr, ptr %32, align 8
  %34 = getelementptr inbounds %struct.H5S_select_class_t, ptr %33, i32 0, i32 10
  %35 = load ptr, ptr %34, align 8
  %36 = load ptr, ptr %3, align 8
  %37 = load ptr, ptr %4, align 8
  %38 = call i32 %35(ptr noundef %36, ptr noundef %37)
  %39 = icmp slt i32 %38, 0
  br i1 %39, label %40, label %55

40:                                               ; preds = %29
  br label %41

41:                                               ; preds = %40
  br label %42

42:                                               ; preds = %41
  br label %43

43:                                               ; preds = %42
  %44 = load i64, ptr @H5E_DATASPACE_g, align 8
  %45 = load i64, ptr @H5E_CANTCOUNT_g, align 8
  %46 = call i32 (ptr, ptr, i32, i64, i64, ptr, ...) @H5E_printf_stack(ptr noundef @.str.1, ptr noundef @__func__.H5S_get_select_num_elem_non_unlim, i32 noundef 766, i64 noundef %44, i64 noundef %45, ptr noundef @.str.14)
  br label %47

47:                                               ; preds = %43
  store i8 1, ptr %6, align 1
  %48 = load i8, ptr %6, align 1
  %49 = trunc i8 %48 to i1
  %50 = zext i1 %49 to i8
  store i8 %50, ptr %6, align 1
  br label %51

51:                                               ; preds = %47
  br label %52

52:                                               ; preds = %51
  store i32 -1, ptr %5, align 4
  br label %56

53:                                               ; No predecessors!
  br label %54

54:                                               ; preds = %53
  br label %55

55:                                               ; preds = %54, %29
  br label %56

56:                                               ; preds = %55, %52, %26
  %57 = load i32, ptr %5, align 4
  ret i32 %57
}