; Function Attrs: nounwind uwtable
define range(i32 -1, 1) i32 @H5S_get_select_num_elem_non_unlim(ptr noundef %0, ptr noundef %1) local_unnamed_addr #3 {
  %3 = getelementptr inbounds i8, ptr %0, i64 80
  %4 = load ptr, ptr %3, align 8
  %5 = getelementptr inbounds i8, ptr %4, i64 80
  %6 = load ptr, ptr %5, align 8
  %.not = icmp eq ptr %6, null
  br i1 %.not, label %7, label %11

7:                                                ; preds = %2
  %8 = load i64, ptr @H5E_DATASPACE_g, align 8
  %9 = load i64, ptr @H5E_UNSUPPORTED_g, align 8
  %10 = tail call i32 (ptr, ptr, i32, i64, i64, ptr, ...) @H5E_printf_stack(ptr noundef nonnull @.str.1, ptr noundef nonnull @__func__.H5S_get_select_num_elem_non_unlim, i32 noundef 761, i64 noundef %8, i64 noundef %9, ptr noundef nonnull @.str.13) #7
  br label %18

11:                                               ; preds = %2
  %12 = tail call i32 %6(ptr noundef nonnull %0, ptr noundef %1) #7
  %13 = icmp slt i32 %12, 0
  br i1 %13, label %14, label %18

14:                                               ; preds = %11
  %15 = load i64, ptr @H5E_DATASPACE_g, align 8
  %16 = load i64, ptr @H5E_CANTCOUNT_g, align 8
  %17 = tail call i32 (ptr, ptr, i32, i64, i64, ptr, ...) @H5E_printf_stack(ptr noundef nonnull @.str.1, ptr noundef nonnull @__func__.H5S_get_select_num_elem_non_unlim, i32 noundef 766, i64 noundef %15, i64 noundef %16, ptr noundef nonnull @.str.14) #7
  br label %18

18:                                               ; preds = %11, %14, %7
  %.0 = phi i32 [ -1, %14 ], [ 0, %11 ], [ -1, %7 ]
  ret i32 %.0
}